target datalayout = "e-m:e-p270:32:32-p271:32:32-p272:64:64-i64:64-i128:128-f80:128-n8:16:32:64-S128"
target triple = "x86_64-unknown-linux-gnu"

%"class.proxygen::SimpleTimeoutClock" = type { %"class.proxygen::AsyncTimeoutSet::TimeoutClock" }
%"class.proxygen::AsyncTimeoutSet::TimeoutClock" = type { ptr }

@_ZZN8proxygen15getTimeoutClockEvE12timeoutClock = internal global %"class.proxygen::SimpleTimeoutClock" zeroinitializer, align 8
@_ZGVZN8proxygen15getTimeoutClockEvE12timeoutClock = internal global i64 0, align 8
@__dso_handle = external hidden global i8

; Function Attrs: mustprogress nounwind uwtable
define linkonce_odr void @_ZN8proxygen15AsyncTimeoutSet12TimeoutClockC2Ev(ptr noundef nonnull align 8 dereferenceable(8) %this) unnamed_addr #2 comdat align 2 {
entry:
  %this.addr = alloca ptr, align 8
  store ptr %this, ptr %this.addr, align 8
  %this1 = load ptr, ptr %this.addr, align 8
  store ptr getelementptr inbounds ({ [5 x ptr] }, ptr @_ZTVN8proxygen15AsyncTimeoutSet12TimeoutClockE, i32 0, i32 0, i32 2), ptr %this1, align 8
  ret void
}

; Function Attrs: mustprogress uwtable
define linkonce_odr void @_ZN8proxygen18SimpleTimeoutClockC2Ev(ptr noundef nonnull align 8 dereferenceable(8) %this) unnamed_addr #0 comdat align 2 {
entry:
  %this.addr = alloca ptr, align 8
  store ptr %this, ptr %this.addr, align 8
  %this1 = load ptr, ptr %this.addr, align 8
  call void @_ZN8proxygen15AsyncTimeoutSet12TimeoutClockC2Ev(ptr noundef nonnull align 8 dereferenceable(8) %this1)
  store ptr getelementptr inbounds ({ [5 x ptr] }, ptr @_ZTVN8proxygen18SimpleTimeoutClockE, i32 0, i32 0, i32 2), ptr %this1, align 8
  ret void
}

; Function Attrs: mustprogress uwtable
define noundef nonnull align 8 dereferenceable(8) ptr @_ZN8proxygen15getTimeoutClockEv() #0 personality ptr @__gxx_personality_v0 {
entry:
  %exn.slot = alloca ptr, align 8
  %ehselector.slot = alloca i32, align 4
  %0 = load atomic i8, ptr @_ZGVZN8proxygen15getTimeoutClockEvE12timeoutClock acquire, align 8
  %guard.uninitialized = icmp eq i8 %0, 0
  br i1 %guard.uninitialized, label %init.check, label %init.end, !prof !4

init.check:                                       ; preds = %entry
  %1 = call i32 @__cxa_guard_acquire(ptr @_ZGVZN8proxygen15getTimeoutClockEvE12timeoutClock) #1
  %tobool = icmp ne i32 %1, 0
  br i1 %tobool, label %init, label %init.end

init:                                             ; preds = %init.check
  invoke void @_ZN8proxygen18SimpleTimeoutClockC2Ev(ptr noundef nonnull align 8 dereferenceable(8) @_ZZN8proxygen15getTimeoutClockEvE12timeoutClock)
          to label %invoke.cont unwind label %lpad

invoke.cont:                                      ; preds = %init
  %2 = call i32 @__cxa_atexit(ptr @_ZN8proxygen18SimpleTimeoutClockD2Ev, ptr @_ZZN8proxygen15getTimeoutClockEvE12timeoutClock, ptr @__dso_handle) #1
  call void @__cxa_guard_release(ptr @_ZGVZN8proxygen15getTimeoutClockEvE12timeoutClock) #1
  br label %init.end

init.end:                                         ; preds = %invoke.cont, %init.check, %entry
  ret ptr @_ZZN8proxygen15getTimeoutClockEvE12timeoutClock

lpad:                                             ; preds = %init
  %3 = landingpad { ptr, i32 }
          cleanup
  %4 = extractvalue { ptr, i32 } %3, 0
  store ptr %4, ptr %exn.slot, align 8
  %5 = extractvalue { ptr, i32 } %3, 1
  store i32 %5, ptr %ehselector.slot, align 4
  call void @__cxa_guard_abort(ptr @_ZGVZN8proxygen15getTimeoutClockEvE12timeoutClock) #1
  br label %eh.resume

eh.resume:                                        ; preds = %lpad
  %exn = load ptr, ptr %exn.slot, align 8
  %sel = load i32, ptr %ehselector.slot, align 4
  %lpad.val = insertvalue { ptr, i32 } poison, ptr %exn, 0
  %lpad.val1 = insertvalue { ptr, i32 } %lpad.val, i32 %sel, 1
  resume { ptr, i32 } %lpad.val1
}