; Function Attrs: mustprogress nofree nounwind uwtable
define noundef nonnull align 8 dereferenceable(8) ptr @_ZN8proxygen15getTimeoutClockEv() local_unnamed_addr #0 personality ptr @__gxx_personality_v0 {
entry:
  %0 = load atomic i8, ptr @_ZGVZN8proxygen15getTimeoutClockEvE12timeoutClock acquire, align 8
  %guard.uninitialized = icmp eq i8 %0, 0
  br i1 %guard.uninitialized, label %init.check, label %init.end, !prof !4

init.check:                                       ; preds = %entry
  %1 = tail call i32 @__cxa_guard_acquire(ptr nonnull @_ZGVZN8proxygen15getTimeoutClockEvE12timeoutClock) #14
  %tobool.not = icmp eq i32 %1, 0
  br i1 %tobool.not, label %init.end, label %invoke.cont

invoke.cont:                                      ; preds = %init.check
  store ptr getelementptr inbounds ({ [5 x ptr] }, ptr @_ZTVN8proxygen18SimpleTimeoutClockE, i64 0, i32 0, i64 2), ptr @_ZZN8proxygen15getTimeoutClockEvE12timeoutClock, align 8
  tail call void @__cxa_guard_release(ptr nonnull @_ZGVZN8proxygen15getTimeoutClockEvE12timeoutClock) #14
  br label %init.end

init.end:                                         ; preds = %invoke.cont, %init.check, %entry
  ret ptr @_ZZN8proxygen15getTimeoutClockEvE12timeoutClock
}